BL51 BANKED LINKER/LOCATER V6.22                                                        05/16/2016  16:54:08  PAGE 1


BL51 BANKED LINKER/LOCATER V6.22, INVOKED BY:
C:\KEIL_V5\C51\BIN\BL51.EXE ..\OutHex\STARTUP.obj, ..\OutHex\Main.obj, ..\OutHex\LCD12864.obj, ..\OutHex\Keyboard.obj, .
>> .\OutHex\LCD12864Exec.obj, ..\OutHex\Delay.obj, ..\OutHex\Serial.obj TO ..\OutHex\CallMaster PRINT (.\Listings\CallMa
>> ster.m51) RAMSIZE (256)


MEMORY MODEL: SMALL


INPUT MODULES INCLUDED:
  ..\OutHex\STARTUP.obj (?C_STARTUP)
  ..\OutHex\Main.obj (MAIN)
  ..\OutHex\LCD12864.obj (LCD12864)
  ..\OutHex\Keyboard.obj (KEYBOARD)
  ..\OutHex\LCD12864Exec.obj (LCD12864EXEC)
  ..\OutHex\Delay.obj (DELAY)
  ..\OutHex\Serial.obj (SERIAL)
  C:\KEIL_V5\C51\LIB\C51S.LIB (?C_INIT)
  C:\KEIL_V5\C51\LIB\C51S.LIB (?C?CLDPTR)
  C:\KEIL_V5\C51\LIB\C51S.LIB (?C?CLDOPTR)
  C:\KEIL_V5\C51\LIB\C51S.LIB (?C?CSTOPTR)
  C:\KEIL_V5\C51\LIB\C51S.LIB (?C?UIDIV)


LINK MAP OF MODULE:  ..\OutHex\CallMaster (?C_STARTUP)


            TYPE    BASE      LENGTH    RELOCATION   SEGMENT NAME
            -----------------------------------------------------

            * * * * * * *   D A T A   M E M O R Y   * * * * * * *
            REG     0000H     0008H     ABSOLUTE     "REG BANK 0"
            REG     0008H     0008H     ABSOLUTE     "REG BANK 1"
            DATA    0010H     000FH     UNIT         _DATA_GROUP_
                    001FH     0001H                  *** GAP ***
            BIT     0020H.0   0000H.1   UNIT         ?BI?SERIAL
                    0020H.1   0000H.7                *** GAP ***
            DATA    0021H     0020H     UNIT         ?DT?LCD12864EXEC
            DATA    0041H     0012H     UNIT         ?DT?SERIAL
            DATA    0053H     0003H     UNIT         ?DT?_SERIAL_SEND_STRING?SERIAL
            DATA    0056H     0002H     UNIT         ?DT?MAIN
            IDATA   0058H     0001H     UNIT         ?STACK

            * * * * * * *   C O D E   M E M O R Y   * * * * * * *
            CODE    0000H     0003H     ABSOLUTE     
            CODE    0003H     001FH     UNIT         ?PR?_SELECT_SCREEN?LCD12864
            CODE    0022H     0001H     UNIT         ?PR?LCD_ROW_UP?LCD12864
            CODE    0023H     0003H     ABSOLUTE     
            CODE    0026H     06A0H     UNIT         ?CO?LCD12864
            CODE    06C6H     00BDH     UNIT         ?C?LIB_CODE
            CODE    0783H     008CH     UNIT         ?C_C51STARTUP
            CODE    080FH     0085H     UNIT         ?PR?_ITOSTR?DELAY
            CODE    0894H     0080H     UNIT         ?PR?_SHOW_DATA?LCD12864EXEC
            CODE    0914H     005AH     UNIT         ?PR?_LCD_WRITE_CHAR?LCD12864
            CODE    096EH     0058H     UNIT         ?PR?SERIAL_INRPT?SERIAL
            CODE    09C6H     004FH     UNIT         ?C_INITSEG
            CODE    0A15H     004DH     UNIT         ?PR?_DEL_ARRAY_ELM?DELAY
            CODE    0A62H     004BH     UNIT         ?PR?_LCD_WRITE_STRING?LCD12864
BL51 BANKED LINKER/LOCATER V6.22                                                      05/16/2016  16:54:08  PAGE 2


            CODE    0AADH     0041H     UNIT         ?PR?SHOW_PAGE?LCD12864EXEC
            CODE    0AEEH     003BH     UNIT         ?PR?CHECK_ACTION?KEYBOARD
            CODE    0B29H     0038H     UNIT         ?PR?SHOW_UPDATE?LCD12864EXEC
            CODE    0B61H     0031H     UNIT         ?PR?_SERIAL_SEND_STRING?SERIAL
            CODE    0B92H     002EH     UNIT         ?PR?_LCD_CLEAN_ROW?LCD12864
            CODE    0BC0H     002DH     UNIT         ?PR?MAIN?MAIN
            CODE    0BEDH     002AH     UNIT         ?PR?_SERIAL_SEND?SERIAL
            CODE    0C17H     0029H     UNIT         ?PR?_LCD_CLS?LCD12864
            CODE    0C40H     0028H     UNIT         ?PR?CMD_IS_VALID?SERIAL
            CODE    0C68H     0024H     UNIT         ?PR?CALL_DEL_ALL?LCD12864EXEC
            CODE    0C8CH     001CH     UNIT         ?PR?_EXEC_ACTION?MAIN
            CODE    0CA8H     001BH     UNIT         ?PR?CALL_DEL_END?LCD12864EXEC
            CODE    0CC3H     0018H     UNIT         ?PR?PAGE_UP?LCD12864EXEC
            CODE    0CDBH     0016H     UNIT         ?PR?PAGE_DOWN?LCD12864EXEC
            CODE    0CF1H     0016H     UNIT         ?PR?SERIAL_INIT?SERIAL
            CODE    0D07H     0014H     UNIT         ?PR?LCD_INIT?LCD12864
            CODE    0D1BH     0012H     UNIT         ?PR?_LCD_WRITE_CMD?LCD12864
            CODE    0D2DH     0012H     UNIT         ?PR?_LCD_SET_COORDS?LCD12864
            CODE    0D3FH     0011H     UNIT         ?PR?_DELAY_MS?DELAY
            CODE    0D50H     000DH     UNIT         ?PR?CALL_ADD_END?LCD12864EXEC
            CODE    0D5DH     000CH     UNIT         ?PR?EXEC_CLS?MAIN
            CODE    0D69H     000CH     UNIT         ?PR?EXEC_DEL?MAIN
            CODE    0D75H     000BH     UNIT         ?PR?_LCD_WRITE_BYTE?LCD12864
            CODE    0D80H     000BH     UNIT         ?CO?LCD12864EXEC
            CODE    0D8BH     000BH     UNIT         ?PR?_DELAY_US?DELAY
            CODE    0D96H     0008H     UNIT         ?PR?_SERIAL_SEND_BYTE?SERIAL
            CODE    0D9EH     0003H     UNIT         ?PR?EXEC_UP?MAIN
            CODE    0DA1H     0003H     UNIT         ?PR?EXEC_DOWN?MAIN



OVERLAY MAP OF MODULE:   ..\OutHex\CallMaster (?C_STARTUP)


SEGMENT                                  DATA_GROUP 
  +--> CALLED SEGMENT                  START    LENGTH
------------------------------------------------------
?C_C51STARTUP                          -----    -----
  +--> ?PR?MAIN?MAIN
  +--> ?C_INITSEG

?PR?MAIN?MAIN                          0010H    0001H
  +--> ?PR?SERIAL_INIT?SERIAL
  +--> ?PR?LCD_INIT?LCD12864
  +--> ?PR?_LCD_CLS?LCD12864
  +--> ?PR?CMD_IS_VALID?SERIAL
  +--> ?PR?CALL_ADD_END?LCD12864EXEC
  +--> ?PR?CHECK_ACTION?KEYBOARD
  +--> ?PR?_EXEC_ACTION?MAIN

?PR?LCD_INIT?LCD12864                  -----    -----
  +--> ?PR?_LCD_WRITE_CMD?LCD12864

?PR?_LCD_CLS?LCD12864                  -----    -----
  +--> ?PR?_SELECT_SCREEN?LCD12864
  +--> ?PR?_LCD_WRITE_CMD?LCD12864
  +--> ?PR?_LCD_WRITE_BYTE?LCD12864
BL51 BANKED LINKER/LOCATER V6.22                                                      05/16/2016  16:54:08  PAGE 3



?PR?CMD_IS_VALID?SERIAL                -----    -----
  +--> ?PR?_SERIAL_SEND?SERIAL

?PR?_SERIAL_SEND?SERIAL                -----    -----
  +--> ?PR?_SERIAL_SEND_BYTE?SERIAL

?PR?CALL_ADD_END?LCD12864EXEC          -----    -----
  +--> ?PR?SHOW_UPDATE?LCD12864EXEC

?PR?SHOW_UPDATE?LCD12864EXEC           -----    -----
  +--> ?PR?_SHOW_DATA?LCD12864EXEC

?PR?_SHOW_DATA?LCD12864EXEC            0012H    0003H
  +--> ?PR?_LCD_CLS?LCD12864
  +--> ?PR?_ITOSTR?DELAY
  +--> ?CO?LCD12864EXEC
  +--> ?PR?_LCD_WRITE_STRING?LCD12864
  +--> ?PR?SHOW_PAGE?LCD12864EXEC

?PR?_ITOSTR?DELAY                      0015H    0009H

?PR?_LCD_WRITE_STRING?LCD12864         0015H    0005H
  +--> ?PR?_LCD_WRITE_CHAR?LCD12864

?PR?_LCD_WRITE_CHAR?LCD12864           -----    -----
  +--> ?PR?_SELECT_SCREEN?LCD12864
  +--> ?PR?_LCD_SET_COORDS?LCD12864
  +--> ?CO?LCD12864
  +--> ?PR?_LCD_WRITE_BYTE?LCD12864

?PR?_LCD_SET_COORDS?LCD12864           -----    -----
  +--> ?PR?_LCD_WRITE_CMD?LCD12864

?PR?SHOW_PAGE?LCD12864EXEC             -----    -----
  +--> ?PR?_ITOSTR?DELAY
  +--> ?PR?_LCD_WRITE_STRING?LCD12864
  +--> ?CO?LCD12864EXEC

?PR?CHECK_ACTION?KEYBOARD              -----    -----
  +--> ?PR?_DELAY_MS?DELAY

?PR?_EXEC_ACTION?MAIN                  -----    -----
  +--> ?PR?EXEC_UP?MAIN
  +--> ?PR?EXEC_DOWN?MAIN
  +--> ?PR?EXEC_CLS?MAIN
  +--> ?PR?EXEC_DEL?MAIN

?PR?EXEC_UP?MAIN                       -----    -----
  +--> ?PR?PAGE_UP?LCD12864EXEC

?PR?PAGE_UP?LCD12864EXEC               -----    -----
  +--> ?PR?_SHOW_DATA?LCD12864EXEC

?PR?EXEC_DOWN?MAIN                     -----    -----
  +--> ?PR?PAGE_DOWN?LCD12864EXEC

BL51 BANKED LINKER/LOCATER V6.22                                                      05/16/2016  16:54:08  PAGE 4


?PR?PAGE_DOWN?LCD12864EXEC             -----    -----
  +--> ?PR?_SHOW_DATA?LCD12864EXEC

?PR?EXEC_CLS?MAIN                      -----    -----
  +--> ?PR?_SERIAL_SEND?SERIAL
  +--> ?PR?CALL_DEL_ALL?LCD12864EXEC

?PR?CALL_DEL_ALL?LCD12864EXEC          0011H    0001H
  +--> ?PR?_DEL_ARRAY_ELM?DELAY
  +--> ?PR?SHOW_UPDATE?LCD12864EXEC

?PR?_DEL_ARRAY_ELM?DELAY               0012H    0006H

?PR?EXEC_DEL?MAIN                      -----    -----
  +--> ?PR?CALL_DEL_END?LCD12864EXEC
  +--> ?PR?_SERIAL_SEND?SERIAL

?PR?CALL_DEL_END?LCD12864EXEC          -----    -----
  +--> ?PR?_DEL_ARRAY_ELM?DELAY
  +--> ?PR?SHOW_UPDATE?LCD12864EXEC

*** NEW ROOT ***************************************************

?PR?SERIAL_INRPT?SERIAL                001EH    0001H



SYMBOL TABLE OF MODULE:  ..\OutHex\CallMaster (?C_STARTUP)

  VALUE           TYPE          NAME
  ----------------------------------

  -------         MODULE        ?C_STARTUP
  C:0783H         SEGMENT       ?C_C51STARTUP
  I:0058H         SEGMENT       ?STACK
  C:0000H         PUBLIC        ?C_STARTUP
  D:00E0H         SYMBOL        ACC
  D:00F0H         SYMBOL        B
  D:0083H         SYMBOL        DPH
  D:0082H         SYMBOL        DPL
  N:0000H         SYMBOL        IBPSTACK
  N:0100H         SYMBOL        IBPSTACKTOP
  N:0080H         SYMBOL        IDATALEN
  C:0786H         SYMBOL        IDATALOOP
  N:0000H         SYMBOL        PBPSTACK
  N:0100H         SYMBOL        PBPSTACKTOP
  N:0000H         SYMBOL        PDATALEN
  N:0000H         SYMBOL        PDATASTART
  N:0000H         SYMBOL        PPAGE
  N:0000H         SYMBOL        PPAGEENABLE
  D:00A0H         SYMBOL        PPAGE_SFR
  D:0081H         SYMBOL        SP
  C:0783H         SYMBOL        STARTUP1
  N:0000H         SYMBOL        XBPSTACK
  N:0000H         SYMBOL        XBPSTACKTOP
  N:0000H         SYMBOL        XDATALEN
  N:0000H         SYMBOL        XDATASTART
BL51 BANKED LINKER/LOCATER V6.22                                                      05/16/2016  16:54:08  PAGE 5


  C:0000H         LINE#         126
  C:0783H         LINE#         133
  C:0785H         LINE#         134
  C:0786H         LINE#         135
  C:0787H         LINE#         136
  C:0789H         LINE#         185
  C:078CH         LINE#         196
  -------         ENDMOD        ?C_STARTUP

  -------         MODULE        MAIN
  C:0000H         SYMBOL        _ICE_DUMMY_
  D:0090H         PUBLIC        P1
  D:00B0H         PUBLIC        P3
  C:0C8CH         PUBLIC        _exec_action
  D:00A8H         PUBLIC        IE
  D:00B8H         PUBLIC        IP
  C:0BC0H         PUBLIC        main
  D:0098H         PUBLIC        SCON
  D:0088H         PUBLIC        TCON
  D:0056H         PUBLIC        NEXT_ADDR
  C:0D69H         PUBLIC        exec_del
  C:0DA1H         PUBLIC        exec_down
  C:0D5DH         PUBLIC        exec_cls
  D:0057H         PUBLIC        COM_ADDR
  D:00C8H         PUBLIC        T2CON
  C:0D9EH         PUBLIC        exec_up
  D:00D0H         PUBLIC        PSW
  -------         PROC          MAIN
  -------         DO            
  D:0010H         SYMBOL        action_key
  -------         ENDDO         
  C:0BC0H         LINE#         23
  C:0BC0H         LINE#         24
  C:0BC0H         LINE#         25
  C:0BC3H         LINE#         26
  C:0BC6H         LINE#         27
  C:0BC9H         LINE#         28
  C:0BCEH         LINE#         29
  C:0BD1H         LINE#         31
  C:0BD1H         LINE#         32
  C:0BD1H         LINE#         33
  C:0BD6H         LINE#         34
  C:0BD6H         LINE#         35
  C:0BDCH         LINE#         36
  C:0BDCH         LINE#         37
  C:0BDCH         LINE#         38
  C:0BDFH         LINE#         39
  C:0BDFH         LINE#         40
  C:0BDFH         LINE#         41
  C:0BDFH         LINE#         42
  C:0BDFH         LINE#         43
  C:0BDFH         LINE#         44
  C:0BE4H         LINE#         45
  C:0BE8H         LINE#         46
  C:0BE8H         LINE#         47
  C:0BEBH         LINE#         48
  C:0BEBH         LINE#         49
BL51 BANKED LINKER/LOCATER V6.22                                                      05/16/2016  16:54:08  PAGE 6


  -------         ENDPROC       MAIN
  -------         PROC          _EXEC_ACTION
  D:0007H         SYMBOL        action_key
  C:0C8CH         LINE#         53
  C:0C8CH         LINE#         54
  C:0C8CH         LINE#         55
  C:0C9BH         LINE#         56
  C:0C9BH         LINE#         57
  C:0C9BH         LINE#         58
  C:0C9EH         LINE#         59
  C:0C9EH         LINE#         60
  C:0C9EH         LINE#         61
  C:0CA1H         LINE#         62
  C:0CA1H         LINE#         63
  C:0CA1H         LINE#         64
  C:0CA4H         LINE#         65
  C:0CA4H         LINE#         66
  C:0CA4H         LINE#         67
  C:0CA7H         LINE#         68
  C:0CA7H         LINE#         69
  C:0CA7H         LINE#         70
  C:0CA7H         LINE#         71
  -------         ENDPROC       _EXEC_ACTION
  -------         PROC          EXEC_UP
  C:0D9EH         LINE#         75
  C:0D9EH         LINE#         76
  C:0D9EH         LINE#         77
  -------         ENDPROC       EXEC_UP
  -------         PROC          EXEC_DOWN
  C:0DA1H         LINE#         80
  C:0DA1H         LINE#         81
  C:0DA1H         LINE#         82
  -------         ENDPROC       EXEC_DOWN
  -------         PROC          EXEC_CLS
  C:0D5DH         LINE#         85
  C:0D5DH         LINE#         86
  C:0D5DH         LINE#         87
  C:0D66H         LINE#         88
  -------         ENDPROC       EXEC_CLS
  -------         PROC          EXEC_DEL
  C:0D69H         LINE#         90
  C:0D69H         LINE#         91
  C:0D69H         LINE#         92
  C:0D6CH         LINE#         93
  -------         ENDPROC       EXEC_DEL
  -------         ENDMOD        MAIN

  -------         MODULE        LCD12864
  C:0000H         SYMBOL        _ICE_DUMMY_
  D:0080H         PUBLIC        P0
  D:0090H         PUBLIC        P1
  D:00A0H         PUBLIC        P2
  D:00B0H         PUBLIC        P3
  D:00A8H         PUBLIC        IE
  D:00B8H         PUBLIC        IP
  B:00A0H.1       PUBLIC        LCD_CS_RIGHT
  D:0098H         PUBLIC        SCON
BL51 BANKED LINKER/LOCATER V6.22                                                      05/16/2016  16:54:08  PAGE 7


  C:0022H         PUBLIC        lcd_row_up
  D:0088H         PUBLIC        TCON
  C:0026H         PUBLIC        shuzi
  C:0A62H         PUBLIC        _lcd_write_string
  C:0914H         PUBLIC        _lcd_write_char
  B:00A0H.4       PUBLIC        LCD_EN
  C:0D07H         PUBLIC        lcd_init
  C:0D2DH         PUBLIC        _lcd_set_coords
  C:00C6H         PUBLIC        font8x16
  C:0B92H         PUBLIC        _lcd_clean_row
  B:00A0H.0       PUBLIC        LCD_CS_LEFT
  C:0C17H         PUBLIC        _lcd_cls
  C:0D22H         PUBLIC        _lcd_write_cmd
  B:00A0H.2       PUBLIC        LCD_RS
  C:0D75H         PUBLIC        _lcd_write_byte
  B:00A0H.3       PUBLIC        LCD_RW
  D:00C8H         PUBLIC        T2CON
  C:0003H         PUBLIC        _select_screen
  D:00D0H         PUBLIC        PSW
  -------         PROC          L?0041
  -------         ENDPROC       L?0041
  -------         PROC          _LCD_WRITE_CMD
  D:0007H         SYMBOL        cmd
  C:0D22H         LINE#         26
  C:0D22H         LINE#         27
  C:0D22H         LINE#         28
  C:0D24H         LINE#         29
  C:0D26H         LINE#         30
  C:0D28H         LINE#         31
  C:0D2AH         LINE#         32
  C:0D2CH         LINE#         33
  -------         ENDPROC       _LCD_WRITE_CMD
  -------         PROC          _LCD_WRITE_BYTE
  D:0007H         SYMBOL        byte
  C:0D75H         LINE#         40
  C:0D75H         LINE#         41
  C:0D75H         LINE#         42
  C:0D77H         LINE#         43
  C:0D79H         LINE#         44
  C:0D7BH         LINE#         45
  C:0D7DH         LINE#         46
  C:0D7FH         LINE#         47
  -------         ENDPROC       _LCD_WRITE_BYTE
  -------         PROC          _SELECT_SCREEN
  D:0007H         SYMBOL        screen
  C:0003H         LINE#         54
  C:0003H         LINE#         55
  C:0003H         LINE#         56
  C:000EH         LINE#         57
  C:000EH         LINE#         58
  C:000EH         LINE#         59
  C:0010H         LINE#         60
  C:0012H         LINE#         61
  C:0013H         LINE#         62
  C:0013H         LINE#         63
  C:0015H         LINE#         64
  C:0017H         LINE#         65
BL51 BANKED LINKER/LOCATER V6.22                                                      05/16/2016  16:54:08  PAGE 8


  C:0018H         LINE#         66
  C:0018H         LINE#         67
  C:001AH         LINE#         68
  C:001CH         LINE#         69
  C:001DH         LINE#         70
  C:001DH         LINE#         71
  C:001FH         LINE#         72
  C:0021H         LINE#         73
  C:0021H         LINE#         74
  C:0021H         LINE#         75
  -------         ENDPROC       _SELECT_SCREEN
  -------         PROC          _LCD_CLS
  D:0007H         SYMBOL        screen
  -------         DO            
  D:0004H         SYMBOL        x
  D:0002H         SYMBOL        y
  -------         ENDDO         
  C:0C17H         LINE#         85
  C:0C17H         LINE#         86
  C:0C17H         LINE#         88
  C:0C1AH         LINE#         89
  C:0C1EH         LINE#         90
  C:0C1EH         LINE#         91
  C:0C1EH         LINE#         92
  C:0C21H         LINE#         93
  C:0C24H         LINE#         94
  C:0C24H         LINE#         95
  C:0C29H         LINE#         96
  C:0C34H         LINE#         97
  C:0C3FH         LINE#         98
  -------         ENDPROC       _LCD_CLS
  -------         PROC          _LCD_CLEAN_ROW
  D:0006H         SYMBOL        row
  -------         DO            
  D:0004H         SYMBOL        col
  D:0005H         SYMBOL        x
  -------         ENDDO         
  C:0B92H         LINE#         100
  C:0B94H         LINE#         101
  C:0B94H         LINE#         103
  C:0B97H         LINE#         104
  C:0B9AH         LINE#         105
  C:0BAEH         LINE#         106
  C:0BAEH         LINE#         107
  C:0BAEH         LINE#         108
  C:0BB1H         LINE#         110
  C:0BB3H         LINE#         111
  C:0BB3H         LINE#         112
  C:0BB8H         LINE#         113
  C:0BBCH         LINE#         114
  C:0BBFH         LINE#         115
  -------         ENDPROC       _LCD_CLEAN_ROW
  -------         PROC          LCD_ROW_UP
  C:0022H         LINE#         117
  C:0022H         LINE#         118
  C:0022H         LINE#         120
  -------         ENDPROC       LCD_ROW_UP
BL51 BANKED LINKER/LOCATER V6.22                                                      05/16/2016  16:54:08  PAGE 9


  -------         PROC          LCD_INIT
  C:0D07H         LINE#         126
  C:0D07H         LINE#         127
  C:0D07H         LINE#         128
  C:0D0CH         LINE#         129
  C:0D11H         LINE#         130
  C:0D16H         LINE#         131
  -------         ENDPROC       LCD_INIT
  -------         PROC          _LCD_SET_COORDS
  D:0007H         SYMBOL        row
  D:0005H         SYMBOL        col
  C:0D2DH         LINE#         140
  C:0D2DH         LINE#         141
  C:0D2DH         LINE#         142
  C:0D34H         LINE#         143
  -------         ENDPROC       _LCD_SET_COORDS
  -------         PROC          _LCD_WRITE_CHAR
  D:0004H         SYMBOL        row
  D:0006H         SYMBOL        col
  D:0003H         SYMBOL        c
  -------         DO            
  D:0006H         SYMBOL        i
  D:0002H         SYMBOL        calc_col
  -------         ENDDO         
  C:0914H         LINE#         153
  C:0918H         LINE#         154
  C:0918H         LINE#         156
  C:091AH         LINE#         158
  C:0920H         LINE#         159
  C:0924H         LINE#         161
  C:0924H         LINE#         162
  C:0928H         LINE#         163
  C:092DH         LINE#         164
  C:092DH         LINE#         165
  C:0934H         LINE#         167
  C:0938H         LINE#         168
  C:093DH         LINE#         169
  C:093FH         LINE#         170
  C:093FH         LINE#         171
  C:0942H         LINE#         172
  C:0942H         LINE#         173
  C:094AH         LINE#         174
  C:094AH         LINE#         175
  C:0969H         LINE#         176
  C:096DH         LINE#         177
  -------         ENDPROC       _LCD_WRITE_CHAR
  -------         PROC          _LCD_WRITE_STRING
  D:0015H         SYMBOL        row
  D:0016H         SYMBOL        col
  D:0017H         SYMBOL        ptr
  C:0A62H         LINE#         186
  C:0A6CH         LINE#         187
  C:0A6CH         LINE#         188
  C:0A72H         LINE#         189
  C:0A7EH         LINE#         190
  C:0A7EH         LINE#         191
  C:0A85H         LINE#         192
BL51 BANKED LINKER/LOCATER V6.22                                                      05/16/2016  16:54:08  PAGE 10


  C:0A85H         LINE#         193
  C:0A89H         LINE#         194
  C:0A8CH         LINE#         195
  C:0A93H         LINE#         196
  C:0A93H         LINE#         197
  C:0A96H         LINE#         198
  C:0A96H         LINE#         199
  C:0A96H         LINE#         200
  C:0A9FH         LINE#         201
  C:0AAAH         LINE#         202
  C:0AACH         LINE#         203
  -------         ENDPROC       _LCD_WRITE_STRING
  -------         ENDMOD        LCD12864

  -------         MODULE        KEYBOARD
  C:0000H         SYMBOL        _ICE_DUMMY_
  D:0090H         PUBLIC        P1
  D:00B0H         PUBLIC        P3
  B:0090H.1       PUBLIC        KEY_DOWN
  D:00A8H         PUBLIC        IE
  D:00B8H         PUBLIC        IP
  B:0090H.2       PUBLIC        KEY_DEL
  D:0098H         PUBLIC        SCON
  D:0088H         PUBLIC        TCON
  B:0090H.3       PUBLIC        KEY_DO
  C:0AEEH         PUBLIC        check_action
  D:00C8H         PUBLIC        T2CON
  B:0090H.0       PUBLIC        KEY_UP
  D:00D0H         PUBLIC        PSW
  -------         PROC          CHECK_ACTION
  C:0AEEH         LINE#         12
  C:0AEEH         LINE#         13
  C:0AEEH         LINE#         14
  C:0AF1H         LINE#         15
  C:0AF1H         LINE#         16
  C:0AF6H         LINE#         17
  C:0AF9H         LINE#         18
  C:0AFCH         LINE#         19
  C:0AFCH         LINE#         20
  C:0AFFH         LINE#         21
  C:0AFFH         LINE#         22
  C:0B04H         LINE#         23
  C:0B07H         LINE#         24
  C:0B0AH         LINE#         25
  C:0B0AH         LINE#         26
  C:0B0DH         LINE#         27
  C:0B0DH         LINE#         28
  C:0B12H         LINE#         29
  C:0B15H         LINE#         30
  C:0B18H         LINE#         31
  C:0B18H         LINE#         32
  C:0B1BH         LINE#         33
  C:0B1BH         LINE#         34
  C:0B20H         LINE#         35
  C:0B23H         LINE#         36
  C:0B26H         LINE#         37
  C:0B26H         LINE#         39
BL51 BANKED LINKER/LOCATER V6.22                                                      05/16/2016  16:54:08  PAGE 11


  C:0B26H         LINE#         40
  C:0B28H         LINE#         41
  C:0B28H         LINE#         43
  -------         ENDPROC       CHECK_ACTION
  -------         ENDMOD        KEYBOARD

  -------         MODULE        LCD12864EXEC
  C:0000H         SYMBOL        _ICE_DUMMY_
  C:0B29H         PUBLIC        show_update
  D:0021H         PUBLIC        buf_maker
  D:0035H         PUBLIC        page_all
  C:0CDBH         PUBLIC        page_down
  C:0894H         PUBLIC        _show_data
  C:0D50H         PUBLIC        call_add_end
  C:0AADH         PUBLIC        show_page
  D:0036H         PUBLIC        end_point
  D:0037H         PUBLIC        buf_itostr
  D:003CH         PUBLIC        page_cur
  C:0CA8H         PUBLIC        call_del_end
  C:0C68H         PUBLIC        call_del_all
  D:003DH         PUBLIC        buf_show
  C:0CC3H         PUBLIC        page_up
  -------         PROC          CALL_DEL_ALL
  -------         DO            
  D:0011H         SYMBOL        i
  -------         ENDDO         
  C:0C68H         LINE#         25
  C:0C68H         LINE#         26
  C:0C68H         LINE#         27
  C:0C6BH         LINE#         28
  C:0C74H         LINE#         29
  C:0C74H         LINE#         30
  C:0C82H         LINE#         31
  C:0C86H         LINE#         32
  C:0C89H         LINE#         33
  -------         ENDPROC       CALL_DEL_ALL
  -------         PROC          CALL_DEL_END
  C:0CA8H         LINE#         36
  C:0CA8H         LINE#         37
  C:0CA8H         LINE#         38
  C:0CAFH         LINE#         39
  C:0CAFH         LINE#         40
  C:0CBFH         LINE#         41
  C:0CC2H         LINE#         42
  C:0CC2H         LINE#         44
  -------         ENDPROC       CALL_DEL_END
  -------         PROC          CALL_ADD_END
  C:0D50H         LINE#         47
  C:0D50H         LINE#         48
  C:0D50H         LINE#         49
  C:0D5AH         LINE#         50
  -------         ENDPROC       CALL_ADD_END
  -------         PROC          SHOW_UPDATE
  -------         DO            
  D:0005H         SYMBOL        start
  D:0007H         SYMBOL        diff
  -------         ENDDO         
BL51 BANKED LINKER/LOCATER V6.22                                                      05/16/2016  16:54:08  PAGE 12


  C:0B29H         LINE#         53
  C:0B29H         LINE#         54
  C:0B29H         LINE#         55
  C:0B2BH         LINE#         56
  C:0B32H         LINE#         57
  C:0B32H         LINE#         58
  C:0B37H         LINE#         59
  C:0B42H         LINE#         60
  C:0B42H         LINE#         61
  C:0B5AH         LINE#         62
  -------         ENDPROC       SHOW_UPDATE
  -------         PROC          PAGE_UP
  -------         DO            
  D:0007H         SYMBOL        start
  D:0005H         SYMBOL        end
  -------         ENDDO         
  C:0CC3H         LINE#         66
  C:0CC3H         LINE#         67
  C:0CC3H         LINE#         69
  C:0CCAH         LINE#         70
  C:0CCAH         LINE#         72
  C:0CCAH         LINE#         73
  C:0CCCH         LINE#         74
  C:0CD4H         LINE#         75
  C:0CD7H         LINE#         76
  C:0CDAH         LINE#         77
  -------         ENDPROC       PAGE_UP
  -------         PROC          PAGE_DOWN
  -------         DO            
  D:0007H         SYMBOL        start
  D:0005H         SYMBOL        end
  -------         ENDDO         
  C:0CDBH         LINE#         79
  C:0CDBH         LINE#         80
  C:0CDBH         LINE#         82
  C:0CE1H         LINE#         84
  C:0CE3H         LINE#         85
  C:0CEBH         LINE#         86
  C:0CEDH         LINE#         88
  C:0CF0H         LINE#         89
  -------         ENDPROC       PAGE_DOWN
  -------         PROC          _SHOW_DATA
  D:0012H         SYMBOL        start
  D:0013H         SYMBOL        end
  -------         DO            
  D:0014H         SYMBOL        i
  -------         ENDDO         
  C:0894H         LINE#         92
  C:0898H         LINE#         93
  C:0898H         LINE#         94
  C:089BH         LINE#         95
  C:08A9H         LINE#         97
  C:08B8H         LINE#         98
  C:08B8H         LINE#         99
  C:08C8H         LINE#         100
  C:08CCH         LINE#         101
  C:08D1H         LINE#         102
BL51 BANKED LINKER/LOCATER V6.22                                                      05/16/2016  16:54:08  PAGE 13


  C:08E0H         LINE#         103
  C:08E0H         LINE#         104
  C:08F2H         LINE#         105
  C:08FFH         LINE#         106
  C:090CH         LINE#         107
  C:0910H         LINE#         108
  C:0913H         LINE#         109
  -------         ENDPROC       _SHOW_DATA
  -------         PROC          SHOW_PAGE
  C:0AADH         LINE#         111
  C:0AADH         LINE#         112
  C:0AADH         LINE#         113
  C:0ABAH         LINE#         114
  C:0AC7H         LINE#         115
  C:0AD4H         LINE#         116
  C:0AE1H         LINE#         117
  -------         ENDPROC       SHOW_PAGE
  -------         ENDMOD        LCD12864EXEC

  -------         MODULE        DELAY
  C:0000H         SYMBOL        _ICE_DUMMY_
  C:080FH         PUBLIC        _itostr
  C:0D3FH         PUBLIC        _delay_ms
  C:0A15H         PUBLIC        _del_array_elm
  C:0D8BH         PUBLIC        _delay_us
  -------         PROC          _DELAY_MS
  D:0007H         SYMBOL        t
  -------         DO            
  D:0006H         SYMBOL        i
  -------         ENDDO         
  C:0D3FH         LINE#         7
  C:0D3FH         LINE#         8
  C:0D3FH         LINE#         9
  C:0D41H         LINE#         10
  C:0D47H         LINE#         11
  C:0D47H         LINE#         12
  C:0D4FH         LINE#         14
  -------         ENDPROC       _DELAY_MS
  -------         PROC          _DELAY_US
  D:0006H         SYMBOL        t
  C:0D8BH         LINE#         20
  C:0D8BH         LINE#         21
  C:0D8BH         LINE#         22
  C:0D95H         LINE#         23
  -------         ENDPROC       _DELAY_US
  -------         PROC          _ITOSTR
  D:0015H         SYMBOL        source
  D:0017H         SYMBOL        dest
  -------         DO            
  D:001AH         SYMBOL        tmp
  D:001CH         SYMBOL        bits
  D:001DH         SYMBOL        i
  -------         ENDDO         
  C:080FH         LINE#         30
  C:0819H         LINE#         31
  C:0819H         LINE#         32
  C:081FH         LINE#         33
BL51 BANKED LINKER/LOCATER V6.22                                                      05/16/2016  16:54:08  PAGE 14


  C:0822H         LINE#         34
  C:0824H         LINE#         35
  C:0824H         LINE#         36
  C:0834H         LINE#         37
  C:083BH         LINE#         39
  C:083BH         LINE#         40
  C:083DH         LINE#         41
  C:084CH         LINE#         42
  C:084CH         LINE#         43
  C:0852H         LINE#         46
  C:085CH         LINE#         47
  C:085CH         LINE#         48
  C:0882H         LINE#         49
  C:088FH         LINE#         50
  C:0893H         LINE#         52
  -------         ENDPROC       _ITOSTR
  -------         PROC          _DEL_ARRAY_ELM
  D:0012H         SYMBOL        ptr
  D:0005H         SYMBOL        del_index
  D:0016H         SYMBOL        all_num
  -------         DO            
  D:0007H         SYMBOL        i
  D:0017H         SYMBOL        tmp
  -------         ENDDO         
  C:0A15H         LINE#         60
  C:0A1BH         LINE#         61
  C:0A1BH         LINE#         62
  C:0A1EH         LINE#         63
  C:0A24H         LINE#         65
  C:0A2FH         LINE#         66
  C:0A2FH         LINE#         67
  C:0A47H         LINE#         68
  C:0A4AH         LINE#         69
  C:0A61H         LINE#         70
  -------         ENDPROC       _DEL_ARRAY_ELM
  -------         ENDMOD        DELAY

  -------         MODULE        SERIAL
  C:0000H         SYMBOL        _ICE_DUMMY_
  D:0080H         PUBLIC        P0
  D:0090H         PUBLIC        P1
  D:00B0H         PUBLIC        P3
  B:00A8H.7       PUBLIC        EA
  C:0B61H         PUBLIC        _serial_send_string
  D:00A8H         PUBLIC        IE
  C:0BEDH         PUBLIC        _serial_send
  C:096EH         PUBLIC        serial_inrpt
  B:00A8H.4       PUBLIC        ES
  D:00B8H         PUBLIC        IP
  D:0043H         PUBLIC        call_data
  B:0098H.0       PUBLIC        RI
  C:0CF1H         PUBLIC        serial_init
  B:0098H.1       PUBLIC        TI
  C:0D96H         PUBLIC        _serial_send_byte
  B:0020H.0       PUBLIC        occur_inrpt
  D:0099H         PUBLIC        SBUF
  D:004BH         PUBLIC        call_cmd
BL51 BANKED LINKER/LOCATER V6.22                                                      05/16/2016  16:54:08  PAGE 15


  D:0098H         PUBLIC        SCON
  D:0089H         PUBLIC        TMOD
  D:0088H         PUBLIC        TCON
  B:0098H.2       PUBLIC        RB8
  D:008DH         PUBLIC        TH1
  B:0098H.3       PUBLIC        TB8
  B:0098H.7       PUBLIC        SM0
  B:0098H.6       PUBLIC        SM1
  D:008BH         PUBLIC        TL1
  B:0088H.6       PUBLIC        TR1
  B:0098H.4       PUBLIC        REN
  C:0C40H         PUBLIC        cmd_is_valid
  D:00C8H         PUBLIC        T2CON
  D:00D0H         PUBLIC        PSW
  -------         PROC          _SERIAL_SEND_BYTE
  D:0007H         SYMBOL        dat
  C:0D96H         LINE#         18
  C:0D96H         LINE#         19
  C:0D96H         LINE#         20
  C:0D98H         LINE#         21
  C:0D9BH         LINE#         23
  C:0D9DH         LINE#         24
  -------         ENDPROC       _SERIAL_SEND_BYTE
  -------         PROC          SERIAL_INIT
  C:0CF1H         LINE#         30
  C:0CF1H         LINE#         31
  C:0CF1H         LINE#         32
  C:0CF4H         LINE#         33
  C:0CF7H         LINE#         34
  C:0CFAH         LINE#         35
  C:0CFCH         LINE#         37
  C:0CFEH         LINE#         38
  C:0D00H         LINE#         39
  C:0D02H         LINE#         40
  C:0D04H         LINE#         41
  C:0D06H         LINE#         42
  -------         ENDPROC       SERIAL_INIT
  -------         PROC          _SERIAL_SEND_STRING
  D:0053H         SYMBOL        ptr
  D:0005H         SYMBOL        num
  -------         DO            
  D:0006H         SYMBOL        i
  -------         ENDDO         
  C:0B61H         LINE#         49
  C:0B67H         LINE#         50
  C:0B67H         LINE#         51
  C:0B69H         LINE#         52
  C:0B6BH         LINE#         53
  C:0B70H         LINE#         54
  C:0B75H         LINE#         55
  C:0B75H         LINE#         56
  C:0B8AH         LINE#         57
  C:0B8DH         LINE#         58
  -------         ENDPROC       _SERIAL_SEND_STRING
  -------         PROC          _SERIAL_SEND
  D:0006H         SYMBOL        addr
  D:0005H         SYMBOL        cmd
BL51 BANKED LINKER/LOCATER V6.22                                                      05/16/2016  16:54:08  PAGE 16


  D:0004H         SYMBOL        dat
  C:0BEDH         LINE#         69
  C:0BF1H         LINE#         70
  C:0BF1H         LINE#         71
  C:0BF3H         LINE#         72
  C:0BF8H         LINE#         73
  C:0BFDH         LINE#         74
  C:0C02H         LINE#         75
  C:0C07H         LINE#         77
  C:0C09H         LINE#         78
  C:0C0DH         LINE#         79
  C:0C12H         LINE#         80
  -------         ENDPROC       _SERIAL_SEND
  -------         PROC          SERIAL_INRPT
  -------         DO            
  D:0041H         SYMBOL        di
  D:0042H         SYMBOL        ci
  D:001EH         SYMBOL        j
  -------         ENDDO         
  C:096EH         LINE#         86
  C:0975H         LINE#         90
  C:0978H         LINE#         91
  C:097AH         LINE#         92
  C:097CH         LINE#         94
  C:097FH         LINE#         95
  C:097FH         LINE#         96
  C:0986H         LINE#         97
  C:0986H         LINE#         98
  C:098BH         LINE#         100
  C:098BH         LINE#         101
  C:0995H         LINE#         103
  C:099AH         LINE#         104
  C:099AH         LINE#         105
  C:099DH         LINE#         107
  C:099FH         LINE#         108
  C:099FH         LINE#         109
  C:09A1H         LINE#         111
  C:09A1H         LINE#         112
  C:09A8H         LINE#         113
  C:09A8H         LINE#         114
  C:09ADH         LINE#         116
  C:09ADH         LINE#         117
  C:09B7H         LINE#         118
  C:09BCH         LINE#         119
  C:09BCH         LINE#         120
  C:09BFH         LINE#         121
  C:09BFH         LINE#         122
  C:09BFH         LINE#         123
  C:09C1H         LINE#         124
  -------         ENDPROC       SERIAL_INRPT
  -------         PROC          CMD_IS_VALID
  C:0C40H         LINE#         130
  C:0C40H         LINE#         131
  C:0C40H         LINE#         132
  C:0C43H         LINE#         133
  C:0C43H         LINE#         134
  C:0C46H         LINE#         135
BL51 BANKED LINKER/LOCATER V6.22                                                      05/16/2016  16:54:08  PAGE 17


  C:0C48H         LINE#         136
  C:0C52H         LINE#         137
  C:0C54H         LINE#         139
  C:0C59H         LINE#         140
  C:0C59H         LINE#         142
  C:0C5BH         LINE#         143
  C:0C5BH         LINE#         145
  C:0C5BH         LINE#         146
  C:0C64H         LINE#         147
  C:0C66H         LINE#         148
  C:0C66H         LINE#         149
  C:0C66H         LINE#         150
  C:0C67H         LINE#         151
  -------         ENDPROC       CMD_IS_VALID
  -------         ENDMOD        SERIAL

  -------         MODULE        ?C?CLDPTR
  C:06C6H         PUBLIC        ?C?CLDPTR
  -------         ENDMOD        ?C?CLDPTR

  -------         MODULE        ?C?CLDOPTR
  C:06DFH         PUBLIC        ?C?CLDOPTR
  -------         ENDMOD        ?C?CLDOPTR

  -------         MODULE        ?C?CSTOPTR
  C:070CH         PUBLIC        ?C?CSTOPTR
  -------         ENDMOD        ?C?CSTOPTR

  -------         MODULE        ?C?UIDIV
  C:072EH         PUBLIC        ?C?UIDIV
  -------         ENDMOD        ?C?UIDIV

*** WARNING L16: UNCALLED SEGMENT, IGNORED FOR OVERLAY PROCESS
    SEGMENT: ?PR?_LCD_CLEAN_ROW?LCD12864

*** WARNING L16: UNCALLED SEGMENT, IGNORED FOR OVERLAY PROCESS
    SEGMENT: ?PR?LCD_ROW_UP?LCD12864

*** WARNING L16: UNCALLED SEGMENT, IGNORED FOR OVERLAY PROCESS
    SEGMENT: ?PR?_DELAY_US?DELAY

*** WARNING L16: UNCALLED SEGMENT, IGNORED FOR OVERLAY PROCESS
    SEGMENT: ?PR?_SERIAL_SEND_STRING?SERIAL

Program Size: data=87.1 xdata=0 code=3492
LINK/LOCATE RUN COMPLETE.  4 WARNING(S),  0 ERROR(S)
